(dp0
S'clip'
p1
F0.1
sS'adapt_org_path'
p2
S''
p3
sS'target_scheme'
p4
(dp5
S'no_name_target'
p6
I59
ssS'nlayer'
p7
I6
sS'adapt_stage'
p8
S'unadapted'
p9
sS'sat'
p10
(dp11
g8
g9
sS'num_sata_layers'
p12
I2
sg2
g3
ssS'nhidden'
p13
I150
sS'data_dir'
p14
S'/data/ASR5/ramons_2/sinbad_projects/openSAT/104-pashto-char-tf-new/tmp'
p15
sS'half_rate'
p16
F0.5
sS'do_shuf'
p17
I01
sS'nepoch'
p18
I30
sS'grad_opt'
p19
S'grad'
p20
sS'num_sat_layers'
p21
I2
sS'model_dir'
p22
S'exp/train_l6_c150_m5-90-tf/model'
p23
sS'random_seed'
p24
I15213
sS'input_feat_dim'
p25
I129
sS'online_augment'
p26
(dp27
S'win'
p28
I3
sS'roll'
p29
I00
sS'factor'
p30
I3
ssS'batch_size'
p31
I16
sS'lstm_type'
p32
S'cudnn'
p33
sS'lr_rate'
p34
F0.02
sS'feat_proj'
p35
I80
sS'nproj'
p36
I80
sS'half_after'
p37
I0
sS'augment'
p38
I01
sS'train_dir'
p39
S'exp/train_l6_c150_m5-90-tf'
p40
sS'l2'
p41
F0.0
sS'store_model'
p42
I01
sS'debug'
p43
I00
sS'half_period'
p44
I6
sS'batch_norm'
p45
I00
s.